Certificate:
    Data:
        Version: 3 (0x2)
        Serial Number: 10243906775873865587 (0x8e29aaf0282dc773)
    Signature Algorithm: sha256WithRSAEncryption
        Issuer: C=DE, ST=Hessen, O=TUD, OU=DIK, CN=TDMP
        Validity
            Not Before: Aug  2 23:45:52 2017 GMT
            Not After : Aug  1 23:45:52 2020 GMT
        Subject: C=DE, ST=Hessen, O=TUD, OU=DIK, CN=TDMP
        Subject Public Key Info:
            Public Key Algorithm: rsaEncryption
                Public-Key: (2048 bit)
                Modulus:
                    00:ac:da:94:87:15:1a:f1:67:0a:8e:35:4d:25:91:
                    27:a4:ea:e5:f8:78:59:38:8e:fe:9e:f6:01:39:ec:
                    aa:31:a6:e7:a4:b0:aa:59:da:09:26:b9:b5:bb:b9:
                    f6:21:2e:5b:38:84:c2:d5:1e:2f:13:8d:3a:40:e9:
                    21:75:da:3e:bb:1e:7e:fe:5d:f0:75:f3:85:66:2e:
                    63:f7:c3:65:99:19:83:ff:94:ee:99:b5:67:f3:7d:
                    23:b7:9d:b9:1f:0b:df:7a:bb:a2:80:a6:a4:1a:48:
                    88:38:f5:c3:1b:b9:c3:ad:16:39:fa:05:d9:59:a0:
                    9d:e2:e7:57:9d:f3:e3:e6:3e:10:aa:d5:2e:30:a9:
                    03:f2:86:61:b7:40:c7:ec:45:9e:42:71:9a:89:9a:
                    e9:6a:0b:4e:bc:ae:bb:d3:f1:f9:af:45:c1:74:2a:
                    b4:ac:1f:59:13:e6:3a:33:4a:9f:90:ec:9e:ae:3e:
                    d2:c1:48:a7:a8:9c:03:46:a1:a8:16:fb:c6:e1:58:
                    26:5e:07:c1:a5:fd:d1:f4:2d:a5:d5:00:f9:c4:61:
                    a6:33:8b:30:18:66:62:94:d4:84:ca:9c:5f:98:7b:
                    d7:53:4d:b6:5f:23:91:82:fc:3a:72:64:15:35:b0:
                    32:ab:cd:a8:d8:77:af:88:fc:4f:f1:33:5d:58:ee:
                    4b:33
                Exponent: 65537 (0x10001)
        X509v3 extensions:
            X509v3 Subject Key Identifier: 
                D1:33:6B:65:D7:3D:0C:1F:6A:57:AA:B9:E2:96:23:87:6F:8C:00:C1
            X509v3 Authority Key Identifier: 
                keyid:D1:33:6B:65:D7:3D:0C:1F:6A:57:AA:B9:E2:96:23:87:6F:8C:00:C1

            X509v3 Basic Constraints: 
                CA:TRUE
    Signature Algorithm: sha256WithRSAEncryption
         72:c9:46:c2:b7:c0:02:9c:e9:0a:ef:a2:ee:3a:b0:de:e5:85:
         c7:d5:be:17:41:de:21:df:55:6b:d0:a4:49:27:1f:6c:c9:74:
         5f:0e:0c:f0:8c:15:66:f0:c0:9d:cf:e4:c9:72:2f:ef:48:cf:
         6f:1d:49:6f:73:a0:27:df:79:14:22:55:c6:eb:e5:54:c9:76:
         41:1b:cb:58:4f:0e:c5:c4:b4:6b:bf:10:4c:5b:dd:fe:ab:5d:
         ec:1b:f3:1c:31:32:8e:78:6a:ac:d3:17:fc:9f:f6:d7:6f:67:
         bc:b3:44:3a:4a:53:34:0e:39:df:9e:ab:77:25:44:1a:86:4b:
         44:41:bc:ff:b1:7d:23:98:7a:f1:a9:db:cb:a1:4f:40:c9:63:
         05:5d:6b:90:22:2b:a7:5b:b3:88:e0:d3:57:59:24:f7:0b:fb:
         22:8a:0c:91:d3:a7:5b:81:00:12:ea:91:a5:67:48:57:db:01:
         9b:9f:93:54:9b:41:8e:f1:46:5c:78:92:34:38:86:d9:44:b2:
         c6:0b:8e:df:2c:96:b6:6a:36:06:78:bd:52:4d:c7:88:81:7b:
         ec:9b:a1:ed:d6:5b:ae:66:21:1f:0c:4d:f0:64:f2:97:0d:33:
         6c:8e:4c:b9:4c:85:72:6a:b6:8f:d3:0b:0f:ac:ed:83:b7:2e:
         b4:a6:19:64
-----BEGIN CERTIFICATE-----
MIIDZTCCAk2gAwIBAgIJAI4pqvAoLcdzMA0GCSqGSIb3DQEBCwUAMEkxCzAJBgNV
BAYTAkRFMQ8wDQYDVQQIDAZIZXNzZW4xDDAKBgNVBAoMA1RVRDEMMAoGA1UECwwD
RElLMQ0wCwYDVQQDDARURE1QMB4XDTE3MDgwMjIzNDU1MloXDTIwMDgwMTIzNDU1
MlowSTELMAkGA1UEBhMCREUxDzANBgNVBAgMBkhlc3NlbjEMMAoGA1UECgwDVFVE
MQwwCgYDVQQLDANESUsxDTALBgNVBAMMBFRETVAwggEiMA0GCSqGSIb3DQEBAQUA
A4IBDwAwggEKAoIBAQCs2pSHFRrxZwqONU0lkSek6uX4eFk4jv6e9gE57Koxpuek
sKpZ2gkmubW7ufYhLls4hMLVHi8TjTpA6SF12j67Hn7+XfB184VmLmP3w2WZGYP/
lO6ZtWfzfSO3nbkfC996u6KApqQaSIg49cMbucOtFjn6BdlZoJ3i51ed8+PmPhCq
1S4wqQPyhmG3QMfsRZ5CcZqJmulqC068rrvT8fmvRcF0KrSsH1kT5jozSp+Q7J6u
PtLBSKeonANGoagW+8bhWCZeB8Gl/dH0LaXVAPnEYaYzizAYZmKU1ITKnF+Ye9dT
TbZfI5GC/DpyZBU1sDKrzajYd6+I/E/xM11Y7kszAgMBAAGjUDBOMB0GA1UdDgQW
BBTRM2tl1z0MH2pXqrniliOHb4wAwTAfBgNVHSMEGDAWgBTRM2tl1z0MH2pXqrni
liOHb4wAwTAMBgNVHRMEBTADAQH/MA0GCSqGSIb3DQEBCwUAA4IBAQByyUbCt8AC
nOkK76LuOrDe5YXH1b4XQd4h31Vr0KRJJx9syXRfDgzwjBVm8MCdz+TJci/vSM9v
HUlvc6An33kUIlXG6+VUyXZBG8tYTw7FxLRrvxBMW93+q13sG/McMTKOeGqs0xf8
n/bXb2e8s0Q6SlM0Djnfnqt3JUQahktEQbz/sX0jmHrxqdvLoU9AyWMFXWuQIiun
W7OI4NNXWST3C/siigyR06dbgQAS6pGlZ0hX2wGbn5NUm0GO8UZceJI0OIbZRLLG
C47fLJa2ajYGeL1STceIgXvsm6Ht1luuZiEfDE3wZPKXDTNsjky5TIVyaraP0wsP
rO2Dty60phlk
-----END CERTIFICATE-----
