Certificate:
    Data:
        Version: 3 (0x2)
        Serial Number: 10243906775873865589 (0x8e29aaf0282dc775)
    Signature Algorithm: sha256WithRSAEncryption
        Issuer: C=DE, ST=Hessen, O=TUD, OU=DIK, CN=TDMP
        Validity
            Not Before: Aug  2 23:51:46 2017 GMT
            Not After : Aug  2 23:51:46 2018 GMT
        Subject: C=DE, ST=Hessen, L=Darmstadt, O=TUD, OU=DIK, CN=TDMp
        Subject Public Key Info:
            Public Key Algorithm: rsaEncryption
                Public-Key: (2048 bit)
                Modulus:
                    00:c0:63:ad:21:f3:a1:7b:5b:02:d7:1d:39:29:23:
                    a7:80:14:56:6d:26:d4:e4:f7:26:8a:bb:87:ec:4e:
                    48:1b:02:85:15:0e:72:a8:19:23:c0:7e:7f:90:74:
                    50:1a:0c:e9:58:31:d3:f7:4d:36:73:54:52:16:d1:
                    fb:e2:ba:5e:17:2a:a5:13:1c:d9:79:b9:ff:b0:ee:
                    b1:8e:1b:36:a9:ee:32:98:03:07:1a:08:24:ea:62:
                    db:02:1a:1f:ca:88:ff:b5:4d:5a:48:22:36:f1:d5:
                    b8:4d:8d:98:54:69:c3:b6:8c:fa:ca:8b:0b:f1:f1:
                    e6:f4:d6:2e:02:94:86:f4:72:f7:c5:50:fe:27:62:
                    f5:a1:67:e6:51:e0:2c:bc:d6:59:12:11:73:0d:e4:
                    4d:34:d3:7b:3d:4a:92:9d:90:4f:cd:88:35:15:94:
                    6d:74:2c:c4:4c:83:82:31:6e:d9:4e:57:c9:6c:14:
                    b1:08:a5:c8:4b:52:0d:c3:76:2e:90:3d:02:1c:c4:
                    9c:1e:8c:1e:de:9d:01:cc:65:47:00:bc:df:ca:50:
                    ca:15:fd:21:f1:82:2c:74:18:2c:af:06:59:d6:b7:
                    79:e4:be:9f:71:5e:b8:bf:fa:47:4c:c5:c3:a4:1f:
                    79:0d:05:c4:cb:7d:9e:5b:0d:a6:ab:d8:18:2b:45:
                    74:59
                Exponent: 65537 (0x10001)
        X509v3 extensions:
            X509v3 Basic Constraints: 
                CA:FALSE
            Netscape Comment: 
                OpenSSL Generated Certificate
            X509v3 Subject Key Identifier: 
                C0:E4:CA:41:03:7D:27:4F:94:22:32:5D:FB:A4:20:CE:3A:AE:37:E1
            X509v3 Authority Key Identifier: 
                keyid:D1:33:6B:65:D7:3D:0C:1F:6A:57:AA:B9:E2:96:23:87:6F:8C:00:C1

    Signature Algorithm: sha256WithRSAEncryption
         37:ea:7e:cb:e8:7d:bc:fa:c0:89:1f:91:86:b5:18:6f:c6:3e:
         b7:a1:86:17:77:4a:4a:83:3e:81:aa:4c:37:74:9f:f2:b1:b8:
         10:a8:1c:4f:5a:14:a0:58:dc:40:9d:81:d0:7a:31:4e:64:81:
         87:a0:50:14:0e:05:31:e3:0e:2e:c9:1d:b8:c4:90:4c:d0:97:
         96:ba:3e:8e:44:6d:21:2d:57:f7:27:1f:6c:e9:49:01:79:b1:
         a3:1c:5d:78:fe:bb:80:8a:45:bc:8a:f0:8b:f7:e1:49:98:9f:
         42:04:65:92:d6:a8:f0:1f:f3:dc:97:76:5c:46:cc:2b:a1:6b:
         7e:a1:15:d2:15:b4:20:1b:89:74:7d:23:56:f7:98:98:a9:91:
         ae:da:69:1e:21:72:fa:03:0e:d6:9c:c8:6f:b1:28:f2:88:7e:
         be:13:4a:1b:4d:e6:53:d4:1e:8b:e9:f7:e8:51:49:e2:79:56:
         cb:3f:03:f6:3c:77:a4:fb:45:e4:2b:f9:2f:58:e6:da:8a:68:
         87:54:50:6c:d3:8f:5c:3d:b9:ae:f8:10:f3:4e:30:3c:51:00:
         09:3e:9c:2e:c5:2d:0d:5d:14:5e:3f:e1:cf:f0:62:66:04:c5:
         14:ff:16:ca:6c:19:b1:09:5d:9f:61:73:95:0c:a3:17:3d:e8:
         14:b1:8c:6f
-----BEGIN CERTIFICATE-----
MIIDpDCCAoygAwIBAgIJAI4pqvAoLcd1MA0GCSqGSIb3DQEBCwUAMEkxCzAJBgNV
BAYTAkRFMQ8wDQYDVQQIDAZIZXNzZW4xDDAKBgNVBAoMA1RVRDEMMAoGA1UECwwD
RElLMQ0wCwYDVQQDDARURE1QMB4XDTE3MDgwMjIzNTE0NloXDTE4MDgwMjIzNTE0
NlowXTELMAkGA1UEBhMCREUxDzANBgNVBAgMBkhlc3NlbjESMBAGA1UEBwwJRGFy
bXN0YWR0MQwwCgYDVQQKDANUVUQxDDAKBgNVBAsMA0RJSzENMAsGA1UEAwwEVERN
cDCCASIwDQYJKoZIhvcNAQEBBQADggEPADCCAQoCggEBAMBjrSHzoXtbAtcdOSkj
p4AUVm0m1OT3Joq7h+xOSBsChRUOcqgZI8B+f5B0UBoM6Vgx0/dNNnNUUhbR++K6
XhcqpRMc2Xm5/7DusY4bNqnuMpgDBxoIJOpi2wIaH8qI/7VNWkgiNvHVuE2NmFRp
w7aM+sqLC/Hx5vTWLgKUhvRy98VQ/idi9aFn5lHgLLzWWRIRcw3kTTTTez1Kkp2Q
T82INRWUbXQsxEyDgjFu2U5XyWwUsQilyEtSDcN2LpA9AhzEnB6MHt6dAcxlRwC8
38pQyhX9IfGCLHQYLK8GWda3eeS+n3FeuL/6R0zFw6QfeQ0FxMt9nlsNpqvYGCtF
dFkCAwEAAaN7MHkwCQYDVR0TBAIwADAsBglghkgBhvhCAQ0EHxYdT3BlblNTTCBH
ZW5lcmF0ZWQgQ2VydGlmaWNhdGUwHQYDVR0OBBYEFMDkykEDfSdPlCIyXfukIM46
rjfhMB8GA1UdIwQYMBaAFNEza2XXPQwfalequeKWI4dvjADBMA0GCSqGSIb3DQEB
CwUAA4IBAQA36n7L6H28+sCJH5GGtRhvxj63oYYXd0pKgz6Bqkw3dJ/ysbgQqBxP
WhSgWNxAnYHQejFOZIGHoFAUDgUx4w4uyR24xJBM0JeWuj6ORG0hLVf3Jx9s6UkB
ebGjHF14/ruAikW8ivCL9+FJmJ9CBGWS1qjwH/Pcl3ZcRswroWt+oRXSFbQgG4l0
fSNW95iYqZGu2mkeIXL6Aw7WnMhvsSjyiH6+E0obTeZT1B6L6ffoUUnieVbLPwP2
PHek+0XkK/kvWObaimiHVFBs049cPbmu+BDzTjA8UQAJPpwuxS0NXRReP+HP8GJm
BMUU/xbKbBmxCV2fYXOVDKMXPegUsYxv
-----END CERTIFICATE-----
